target datalayout = "e-m:e-p270:32:32-p271:32:32-p272:64:64-i64:64-i128:128-f80:128-n8:16:32:64-S128"
target triple = "x86_64-pc-linux-gnu"

%class.V3ConfigResolver = type { %class.V3ConfigWildcardResolver, %class.V3ConfigWildcardResolver.0, %class.V3ConfigScopeTraceResolver, %"class.std::unordered_map", ptr }
%class.V3ConfigWildcardResolver = type { %class.V3MutexImp, %"class.std::map", %"class.std::map" }
%class.V3MutexImp = type { %"class.std::mutex" }
%"class.std::mutex" = type { %"class.std::__mutex_base" }
%"class.std::__mutex_base" = type { %union.pthread_mutex_t }
%union.pthread_mutex_t = type { %struct.__pthread_mutex_s }
%struct.__pthread_mutex_s = type { i32, i32, i32, i32, i32, i16, i16, %struct.__pthread_internal_list }
%struct.__pthread_internal_list = type { ptr, ptr }
%"class.std::map" = type { %"class.std::_Rb_tree" }
%"class.std::_Rb_tree" = type { %"struct.std::_Rb_tree<const std::__cxx11::basic_string<char>, std::pair<const std::__cxx11::basic_string<char>, V3ConfigModule>, std::_Select1st<std::pair<const std::__cxx11::basic_string<char>, V3ConfigModule>>, std::less<const std::__cxx11::basic_string<char>>>::_Rb_tree_impl" }
%"struct.std::_Rb_tree<const std::__cxx11::basic_string<char>, std::pair<const std::__cxx11::basic_string<char>, V3ConfigModule>, std::_Select1st<std::pair<const std::__cxx11::basic_string<char>, V3ConfigModule>>, std::less<const std::__cxx11::basic_string<char>>>::_Rb_tree_impl" = type { %"struct.std::_Rb_tree_key_compare", %"struct.std::_Rb_tree_header" }
%"struct.std::_Rb_tree_key_compare" = type { %"struct.std::less" }
%"struct.std::less" = type { i8 }
%"struct.std::_Rb_tree_header" = type { %"struct.std::_Rb_tree_node_base", i64 }
%"struct.std::_Rb_tree_node_base" = type { i32, ptr, ptr, ptr }
%class.V3ConfigWildcardResolver.0 = type { %class.V3MutexImp, %"class.std::map.1", %"class.std::map.1" }
%"class.std::map.1" = type { %"class.std::_Rb_tree.2" }
%"class.std::_Rb_tree.2" = type { %"struct.std::_Rb_tree<const std::__cxx11::basic_string<char>, std::pair<const std::__cxx11::basic_string<char>, V3ConfigFile>, std::_Select1st<std::pair<const std::__cxx11::basic_string<char>, V3ConfigFile>>, std::less<const std::__cxx11::basic_string<char>>>::_Rb_tree_impl" }
%"struct.std::_Rb_tree<const std::__cxx11::basic_string<char>, std::pair<const std::__cxx11::basic_string<char>, V3ConfigFile>, std::_Select1st<std::pair<const std::__cxx11::basic_string<char>, V3ConfigFile>>, std::less<const std::__cxx11::basic_string<char>>>::_Rb_tree_impl" = type { %"struct.std::_Rb_tree_key_compare", %"struct.std::_Rb_tree_header" }
%class.V3ConfigScopeTraceResolver = type { %"class.std::vector", %"class.std::map.9" }
%"class.std::vector" = type { %"struct.std::_Vector_base" }
%"struct.std::_Vector_base" = type { %"struct.std::_Vector_base<V3ConfigScopeTraceEntry, std::allocator<V3ConfigScopeTraceEntry>>::_Vector_impl" }
%"struct.std::_Vector_base<V3ConfigScopeTraceEntry, std::allocator<V3ConfigScopeTraceEntry>>::_Vector_impl" = type { %"struct.std::_Vector_base<V3ConfigScopeTraceEntry, std::allocator<V3ConfigScopeTraceEntry>>::_Vector_impl_data" }
%"struct.std::_Vector_base<V3ConfigScopeTraceEntry, std::allocator<V3ConfigScopeTraceEntry>>::_Vector_impl_data" = type { ptr, ptr, ptr }
%"class.std::map.9" = type { %"class.std::_Rb_tree.10" }
%"class.std::_Rb_tree.10" = type { %"struct.std::_Rb_tree<V3ConfigScopeTraceEntryMatch, std::pair<const V3ConfigScopeTraceEntryMatch, bool>, std::_Select1st<std::pair<const V3ConfigScopeTraceEntryMatch, bool>>, std::less<V3ConfigScopeTraceEntryMatch>>::_Rb_tree_impl" }
%"struct.std::_Rb_tree<V3ConfigScopeTraceEntryMatch, std::pair<const V3ConfigScopeTraceEntryMatch, bool>, std::_Select1st<std::pair<const V3ConfigScopeTraceEntryMatch, bool>>, std::less<V3ConfigScopeTraceEntryMatch>>::_Rb_tree_impl" = type { %"struct.std::_Rb_tree_key_compare.14", %"struct.std::_Rb_tree_header" }
%"struct.std::_Rb_tree_key_compare.14" = type { %"struct.std::less.15" }
%"struct.std::less.15" = type { i8 }
%"class.std::unordered_map" = type { %"class.std::_Hashtable" }
%"class.std::_Hashtable" = type { ptr, i64, %"struct.std::__detail::_Hash_node_base", i64, %"struct.std::__detail::_Prime_rehash_policy", ptr }
%"struct.std::__detail::_Hash_node_base" = type { ptr }
%"struct.std::__detail::_Prime_rehash_policy" = type { float, i64 }
%"class.std::__cxx11::basic_string" = type { %"struct.std::__cxx11::basic_string<char>::_Alloc_hider", i64, %union.anon }
%"struct.std::__cxx11::basic_string<char>::_Alloc_hider" = type { ptr }
%union.anon = type { i64, [8 x i8] }
%class.V3ErrorCode = type { i8 }

@__dso_handle = external hidden global i8
@_ZZN16V3ConfigResolver1sEvE11s_singleton = linkonce_odr dso_local global %class.V3ConfigResolver zeroinitializer, comdat, align 8
@_ZGVZN16V3ConfigResolver1sEvE11s_singleton = linkonce_odr dso_local global i64 0, comdat, align 8

; Function Attrs: mustprogress nounwind uwtable
define linkonce_odr dso_local noundef nonnull align 8 dereferenceable(136) ptr @_ZN16V3ConfigResolver5filesEv(ptr noundef nonnull align 8 dereferenceable(408) %0) #5 comdat align 2 {
  %2 = alloca ptr, align 8
  store ptr %0, ptr %2, align 8
  %3 = load ptr, ptr %2, align 8
  %4 = getelementptr inbounds %class.V3ConfigResolver, ptr %3, i32 0, i32 1
  ret ptr %4
}

; Function Attrs: mustprogress nounwind uwtable
define linkonce_odr dso_local noundef nonnull align 8 dereferenceable(408) ptr @_ZN16V3ConfigResolver1sEv() #5 comdat align 2 {
  %1 = load atomic i8, ptr @_ZGVZN16V3ConfigResolver1sEvE11s_singleton acquire, align 8
  %2 = icmp eq i8 %1, 0
  br i1 %2, label %3, label %8, !prof !5

3:                                                ; preds = %0
  %4 = call i32 @__cxa_guard_acquire(ptr @_ZGVZN16V3ConfigResolver1sEvE11s_singleton) #3
  %5 = icmp ne i32 %4, 0
  br i1 %5, label %6, label %8

6:                                                ; preds = %3
  call void @_ZN16V3ConfigResolverC2Ev(ptr noundef nonnull align 8 dereferenceable(408) @_ZZN16V3ConfigResolver1sEvE11s_singleton) #3
  %7 = call i32 @__cxa_atexit(ptr @_ZN16V3ConfigResolverD2Ev, ptr @_ZZN16V3ConfigResolver1sEvE11s_singleton, ptr @__dso_handle) #3
  call void @__cxa_guard_release(ptr @_ZGVZN16V3ConfigResolver1sEvE11s_singleton) #3
  br label %8

8:                                                ; preds = %6, %3, %0
  ret ptr @_ZZN16V3ConfigResolver1sEvE11s_singleton
}

; Function Attrs: mustprogress uwtable
define dso_local noundef zeroext i1 @_ZN8V3Config5waiveEP8FileLine11V3ErrorCodeRKNSt7__cxx1112basic_stringIcSt11char_traitsIcESaIcEEE(ptr noundef %0, i8 %1, ptr noundef nonnull align 8 dereferenceable(32) %2) #4 align 2 personality ptr @__gxx_personality_v0 {
  %4 = alloca i1, align 1
  %5 = alloca %class.V3ErrorCode, align 1
  %6 = alloca ptr, align 8
  %7 = alloca ptr, align 8
  %8 = alloca ptr, align 8
  %9 = alloca %"class.std::__cxx11::basic_string", align 8
  %10 = alloca ptr, align 8
  %11 = alloca i32, align 4
  %12 = alloca %class.V3ErrorCode, align 1
  %13 = getelementptr inbounds %class.V3ErrorCode, ptr %5, i32 0, i32 0
  store i8 %1, ptr %13, align 1
  store ptr %0, ptr %6, align 8
  store ptr %2, ptr %7, align 8
  %14 = call noundef nonnull align 8 dereferenceable(408) ptr @_ZN16V3ConfigResolver1sEv()
  %15 = call noundef nonnull align 8 dereferenceable(136) ptr @_ZN16V3ConfigResolver5filesEv(ptr noundef nonnull align 8 dereferenceable(408) %14)
  %16 = load ptr, ptr %6, align 8
  call void @_ZNK8FileLine8filenameB5cxx11Ev(ptr dead_on_unwind writable sret(%"class.std::__cxx11::basic_string") align 8 %9, ptr noundef nonnull align 8 dereferenceable(40) %16)
  %17 = invoke noundef ptr @_ZN24V3ConfigWildcardResolverI12V3ConfigFileE7resolveERKNSt7__cxx1112basic_stringIcSt11char_traitsIcESaIcEEE(ptr noundef nonnull align 8 dereferenceable(136) %15, ptr noundef nonnull align 8 dereferenceable(32) %9)
          to label %18 unwind label %22

18:                                               ; preds = %3
  call void @_ZNSt7__cxx1112basic_stringIcSt11char_traitsIcESaIcEED1Ev(ptr noundef nonnull align 8 dereferenceable(32) %9) #3
  store ptr %17, ptr %8, align 8
  %19 = load ptr, ptr %8, align 8
  %20 = icmp ne ptr %19, null
  br i1 %20, label %26, label %21

21:                                               ; preds = %18
  store i1 false, ptr %4, align 1
  br label %32

22:                                               ; preds = %3
  %23 = landingpad { ptr, i32 }
          cleanup
  %24 = extractvalue { ptr, i32 } %23, 0
  store ptr %24, ptr %10, align 8
  %25 = extractvalue { ptr, i32 } %23, 1
  store i32 %25, ptr %11, align 4
  call void @_ZNSt7__cxx1112basic_stringIcSt11char_traitsIcESaIcEED1Ev(ptr noundef nonnull align 8 dereferenceable(32) %9) #3
  br label %34

26:                                               ; preds = %18
  %27 = load ptr, ptr %8, align 8
  call void @llvm.memcpy.p0.p0.i64(ptr align 1 %12, ptr align 1 %5, i64 1, i1 false)
  %28 = load ptr, ptr %7, align 8
  %29 = getelementptr inbounds %class.V3ErrorCode, ptr %12, i32 0, i32 0
  %30 = load i8, ptr %29, align 1
  %31 = call noundef zeroext i1 @_ZN12V3ConfigFile5waiveE11V3ErrorCodeRKNSt7__cxx1112basic_stringIcSt11char_traitsIcESaIcEEE(ptr noundef nonnull align 8 dereferenceable(136) %27, i8 %30, ptr noundef nonnull align 8 dereferenceable(32) %28)
  store i1 %31, ptr %4, align 1
  br label %32

32:                                               ; preds = %26, %21
  %33 = load i1, ptr %4, align 1
  ret i1 %33

34:                                               ; preds = %22
  %35 = load ptr, ptr %10, align 8
  %36 = load i32, ptr %11, align 4
  %37 = insertvalue { ptr, i32 } poison, ptr %35, 0
  %38 = insertvalue { ptr, i32 } %37, i32 %36, 1
  resume { ptr, i32 } %38
}