; Function Attrs: mustprogress uwtable
define dso_local noundef zeroext i1 @_ZN8V3Config5waiveEP8FileLine11V3ErrorCodeRKNSt7__cxx1112basic_stringIcSt11char_traitsIcESaIcEEE(ptr noundef %0, i8 %1, ptr noundef nonnull align 8 dereferenceable(32) %2) local_unnamed_addr #3 align 2 personality ptr @__gxx_personality_v0 {
  %4 = alloca %"class.std::__cxx11::basic_string", align 8
  %5 = load atomic i8, ptr @_ZGVZN16V3ConfigResolver1sEvE11s_singleton acquire, align 8
  %6 = icmp eq i8 %5, 0
  br i1 %6, label %7, label %_ZN16V3ConfigResolver1sEv.exit, !prof !5

7:                                                ; preds = %3
  %8 = tail call i32 @__cxa_guard_acquire(ptr nonnull @_ZGVZN16V3ConfigResolver1sEvE11s_singleton) #18
  %.not.i = icmp eq i32 %8, 0
  br i1 %.not.i, label %_ZN16V3ConfigResolver1sEv.exit, label %9

9:                                                ; preds = %7
  tail call void @_ZN16V3ConfigResolverC2Ev(ptr noundef nonnull align 8 dereferenceable(408) @_ZZN16V3ConfigResolver1sEvE11s_singleton) #18
  %10 = tail call i32 @__cxa_atexit(ptr nonnull @_ZN16V3ConfigResolverD2Ev, ptr nonnull @_ZZN16V3ConfigResolver1sEvE11s_singleton, ptr nonnull @__dso_handle) #18
  tail call void @__cxa_guard_release(ptr nonnull @_ZGVZN16V3ConfigResolver1sEvE11s_singleton) #18
  br label %_ZN16V3ConfigResolver1sEv.exit

_ZN16V3ConfigResolver1sEv.exit:                   ; preds = %3, %7, %9
  call void @_ZNK8FileLine8filenameB5cxx11Ev(ptr dead_on_unwind nonnull writable sret(%"class.std::__cxx11::basic_string") align 8 %4, ptr noundef nonnull align 8 dereferenceable(40) %0)
  %11 = invoke noundef ptr @_ZN24V3ConfigWildcardResolverI12V3ConfigFileE7resolveERKNSt7__cxx1112basic_stringIcSt11char_traitsIcESaIcEEE(ptr noundef nonnull align 8 dereferenceable(136) getelementptr inbounds (%class.V3ConfigResolver, ptr @_ZZN16V3ConfigResolver1sEvE11s_singleton, i64 0, i32 1, i32 0, i32 0, i32 0, i32 0, i32 0, i32 0), ptr noundef nonnull align 8 dereferenceable(32) %4)
          to label %12 unwind label %13

12:                                               ; preds = %_ZN16V3ConfigResolver1sEv.exit
  call void @_ZNSt7__cxx1112basic_stringIcSt11char_traitsIcESaIcEED1Ev(ptr noundef nonnull align 8 dereferenceable(32) %4) #18
  %.not = icmp eq ptr %11, null
  br i1 %.not, label %17, label %15

13:                                               ; preds = %_ZN16V3ConfigResolver1sEv.exit
  %14 = landingpad { ptr, i32 }
          cleanup
  call void @_ZNSt7__cxx1112basic_stringIcSt11char_traitsIcESaIcEED1Ev(ptr noundef nonnull align 8 dereferenceable(32) %4) #18
  resume { ptr, i32 } %14

15:                                               ; preds = %12
  %16 = call noundef zeroext i1 @_ZN12V3ConfigFile5waiveE11V3ErrorCodeRKNSt7__cxx1112basic_stringIcSt11char_traitsIcESaIcEEE(ptr noundef nonnull align 8 dereferenceable(136) %11, i8 %1, ptr noundef nonnull align 8 dereferenceable(32) %2)
  br label %17

17:                                               ; preds = %12, %15
  %.0 = phi i1 [ %16, %15 ], [ false, %12 ]
  ret i1 %.0
}